target datalayout = "e-m:e-p270:32:32-p271:32:32-p272:64:64-i64:64-i128:128-f80:128-n8:16:32:64-S128"
target triple = "x86_64-pc-linux-gnu"

%struct.rb_data_type_struct = type { ptr, %struct.anon.5, ptr, ptr, i64 }
%struct.anon.5 = type { ptr, ptr, ptr, ptr, [1 x ptr] }
%struct.rb_transcoder = type { ptr, ptr, i32, ptr, i32, ptr, i32, i32, i32, i32, i32, i32, i64, ptr, ptr, ptr, ptr, ptr, ptr, ptr, ptr, ptr, ptr }
%struct.rb_econv_t = type { i32, i32, ptr, ptr, ptr, i64, ptr, ptr, ptr, ptr, ptr, ptr, i32, i32, i32, i32, ptr, %struct.anon, ptr, ptr }
%struct.anon = type { i32, ptr, ptr, ptr, ptr, i64, i64 }
%struct.rb_transcoding = type { ptr, i32, i32, i32, i64, i8, i32, i64, i64, %union.anon, i64, i64, %union.anon.0, %union.rb_transcoding_state_t }
%union.anon = type { ptr }
%union.anon.0 = type { ptr }
%union.rb_transcoding_state_t = type { ptr }

@.str.2 = private unnamed_addr constant [1 x i8] zeroinitializer, align 1
@rb_eUndefinedConversionError = internal global i64 0, align 8
@.str.82 = private unnamed_addr constant [9 x i8] c"US-ASCII\00", align 1
@.str.89 = private unnamed_addr constant [2 x i8] c"?\00", align 1
@.str.90 = private unnamed_addr constant [6 x i8] c"UTF-8\00", align 1
@.str.91 = private unnamed_addr constant [4 x i8] c"\EF\BF\BD\00", align 1
@econv_data_type = internal constant %struct.rb_data_type_struct { ptr @.str.110, %struct.anon.5 { ptr null, ptr @econv_free, ptr @econv_memsize, ptr null, [1 x ptr] zeroinitializer }, ptr null, ptr null, i64 1 }, align 8
@rb_eTypeError = external global i64, align 8
@.str.119 = private unnamed_addr constant [33 x i8] c"uninitialized encoding converter\00", align 1
@.str.129 = private unnamed_addr constant [35 x i8] c"replacement character setup failed\00", align 1

; Function Attrs: nounwind sspstrong uwtable
define internal ptr @get_replacement_character(ptr noundef %0, ptr noundef %1, ptr noundef %2) #0 {
  %4 = alloca ptr, align 8
  %5 = alloca ptr, align 8
  %6 = alloca ptr, align 8
  %7 = alloca ptr, align 8
  store ptr %0, ptr %5, align 8, !tbaa !21
  store ptr %1, ptr %6, align 8, !tbaa !80
  store ptr %2, ptr %7, align 8, !tbaa !39
  %8 = load ptr, ptr %5, align 8, !tbaa !21
  %9 = call i32 @rb_st_locale_insensitive_strcasecmp(ptr noundef %8, ptr noundef @.str.90) #29
  %10 = icmp eq i32 %9, 0
  br i1 %10, label %11, label %14

11:                                               ; preds = %3
  %12 = load ptr, ptr %6, align 8, !tbaa !80
  store i64 3, ptr %12, align 8, !tbaa !12
  %13 = load ptr, ptr %7, align 8, !tbaa !39
  store ptr @.str.90, ptr %13, align 8, !tbaa !21
  store ptr @.str.91, ptr %4, align 8
  br label %17

14:                                               ; preds = %3
  %15 = load ptr, ptr %6, align 8, !tbaa !80
  store i64 1, ptr %15, align 8, !tbaa !12
  %16 = load ptr, ptr %7, align 8, !tbaa !39
  store ptr @.str.82, ptr %16, align 8, !tbaa !21
  store ptr @.str.89, ptr %4, align 8
  br label %17

17:                                               ; preds = %14, %11
  %18 = load ptr, ptr %4, align 8
  ret ptr %18
}

; Function Attrs: nounwind sspstrong uwtable
define dso_local ptr @rb_econv_encoding_to_insert_output(ptr noundef %0) #0 {
  %2 = alloca ptr, align 8
  %3 = alloca ptr, align 8
  %4 = alloca ptr, align 8
  %5 = alloca ptr, align 8
  %6 = alloca i32, align 4
  store ptr %0, ptr %3, align 8, !tbaa !30
  call void @llvm.lifetime.start.p0(i64 8, ptr %4) #25
  %7 = load ptr, ptr %3, align 8, !tbaa !30
  %8 = getelementptr inbounds nuw %struct.rb_econv_t, ptr %7, i32 0, i32 16
  %9 = load ptr, ptr %8, align 8, !tbaa !79
  store ptr %9, ptr %4, align 8, !tbaa !66
  call void @llvm.lifetime.start.p0(i64 8, ptr %5) #25
  %10 = load ptr, ptr %4, align 8, !tbaa !66
  %11 = icmp eq ptr %10, null
  br i1 %11, label %12, label %13

12:                                               ; preds = %1
  store ptr @.str.2, ptr %2, align 8
  store i32 1, ptr %6, align 4
  br label %29

13:                                               ; preds = %1
  %14 = load ptr, ptr %4, align 8, !tbaa !66
  %15 = getelementptr inbounds nuw %struct.rb_transcoding, ptr %14, i32 0, i32 0
  %16 = load ptr, ptr %15, align 8, !tbaa !51
  store ptr %16, ptr %5, align 8, !tbaa !14
  %17 = load ptr, ptr %5, align 8, !tbaa !14
  %18 = getelementptr inbounds nuw %struct.rb_transcoder, ptr %17, i32 0, i32 11
  %19 = load i32, ptr %18, align 4, !tbaa !53
  %20 = icmp eq i32 %19, 2
  br i1 %20, label %21, label %25

21:                                               ; preds = %13
  %22 = load ptr, ptr %5, align 8, !tbaa !14
  %23 = getelementptr inbounds nuw %struct.rb_transcoder, ptr %22, i32 0, i32 0
  %24 = load ptr, ptr %23, align 8, !tbaa !16
  store ptr %24, ptr %2, align 8
  store i32 1, ptr %6, align 4
  br label %29

25:                                               ; preds = %13
  %26 = load ptr, ptr %5, align 8, !tbaa !14
  %27 = getelementptr inbounds nuw %struct.rb_transcoder, ptr %26, i32 0, i32 1
  %28 = load ptr, ptr %27, align 8, !tbaa !22
  store ptr %28, ptr %2, align 8
  store i32 1, ptr %6, align 4
  br label %29

29:                                               ; preds = %25, %21, %12
  call void @llvm.lifetime.end.p0(i64 8, ptr %5) #25
  call void @llvm.lifetime.end.p0(i64 8, ptr %4) #25
  %30 = load ptr, ptr %2, align 8
  ret ptr %30
}

; Function Attrs: nounwind sspstrong uwtable
define internal i32 @make_replacement(ptr noundef %0) #0 {
  %2 = alloca i32, align 4
  %3 = alloca ptr, align 8
  %4 = alloca ptr, align 8
  %5 = alloca ptr, align 8
  %6 = alloca ptr, align 8
  %7 = alloca ptr, align 8
  %8 = alloca ptr, align 8
  %9 = alloca i64, align 8
  %10 = alloca i32, align 4
  store ptr %0, ptr %3, align 8, !tbaa !30
  call void @llvm.lifetime.start.p0(i64 8, ptr %4) #25
  call void @llvm.lifetime.start.p0(i64 8, ptr %5) #25
  call void @llvm.lifetime.start.p0(i64 8, ptr %6) #25
  call void @llvm.lifetime.start.p0(i64 8, ptr %7) #25
  call void @llvm.lifetime.start.p0(i64 8, ptr %8) #25
  call void @llvm.lifetime.start.p0(i64 8, ptr %9) #25
  %11 = load ptr, ptr %3, align 8, !tbaa !30
  %12 = getelementptr inbounds nuw %struct.rb_econv_t, ptr %11, i32 0, i32 4
  %13 = load ptr, ptr %12, align 8, !tbaa !55
  %14 = icmp ne ptr %13, null
  br i1 %14, label %15, label %16

15:                                               ; preds = %1
  store i32 0, ptr %2, align 4
  store i32 1, ptr %10, align 4
  br label %48

16:                                               ; preds = %1
  %17 = load ptr, ptr %3, align 8, !tbaa !30
  %18 = call ptr @rb_econv_encoding_to_insert_output(ptr noundef %17)
  store ptr %18, ptr %8, align 8, !tbaa !21
  %19 = load ptr, ptr %3, align 8, !tbaa !30
  %20 = getelementptr inbounds nuw %struct.rb_econv_t, ptr %19, i32 0, i32 16
  %21 = load ptr, ptr %20, align 8, !tbaa !79
  store ptr %21, ptr %4, align 8, !tbaa !66
  %22 = load ptr, ptr %8, align 8, !tbaa !21
  %23 = load i8, ptr %22, align 1, !tbaa !41
  %24 = icmp ne i8 %23, 0
  br i1 %24, label %25, label %35

25:                                               ; preds = %16
  %26 = load ptr, ptr %4, align 8, !tbaa !66
  %27 = getelementptr inbounds nuw %struct.rb_transcoding, ptr %26, i32 0, i32 0
  %28 = load ptr, ptr %27, align 8, !tbaa !51
  store ptr %28, ptr %5, align 8, !tbaa !14
  %29 = load ptr, ptr %5, align 8, !tbaa !14
  %30 = getelementptr inbounds nuw %struct.rb_transcoder, ptr %29, i32 0, i32 1
  %31 = load ptr, ptr %30, align 8, !tbaa !22
  %32 = call ptr @rb_enc_find(ptr noundef %31)
  %33 = load ptr, ptr %8, align 8, !tbaa !21
  %34 = call ptr @get_replacement_character(ptr noundef %33, ptr noundef %9, ptr noundef %7)
  store ptr %34, ptr %6, align 8, !tbaa !21
  br label %36

35:                                               ; preds = %16
  store ptr @.str.89, ptr %6, align 8, !tbaa !21
  store i64 1, ptr %9, align 8, !tbaa !12
  store ptr @.str.2, ptr %7, align 8, !tbaa !21
  br label %36

36:                                               ; preds = %35, %25
  %37 = load ptr, ptr %6, align 8, !tbaa !21
  %38 = load ptr, ptr %3, align 8, !tbaa !30
  %39 = getelementptr inbounds nuw %struct.rb_econv_t, ptr %38, i32 0, i32 4
  store ptr %37, ptr %39, align 8, !tbaa !55
  %40 = load i64, ptr %9, align 8, !tbaa !12
  %41 = load ptr, ptr %3, align 8, !tbaa !30
  %42 = getelementptr inbounds nuw %struct.rb_econv_t, ptr %41, i32 0, i32 5
  store i64 %40, ptr %42, align 8, !tbaa !76
  %43 = load ptr, ptr %7, align 8, !tbaa !21
  %44 = load ptr, ptr %3, align 8, !tbaa !30
  %45 = getelementptr inbounds nuw %struct.rb_econv_t, ptr %44, i32 0, i32 6
  store ptr %43, ptr %45, align 8, !tbaa !77
  %46 = load ptr, ptr %3, align 8, !tbaa !30
  %47 = getelementptr inbounds nuw %struct.rb_econv_t, ptr %46, i32 0, i32 12
  store i32 0, ptr %47, align 8, !tbaa !54
  store i32 0, ptr %2, align 4
  store i32 1, ptr %10, align 4
  br label %48

48:                                               ; preds = %36, %15
  call void @llvm.lifetime.end.p0(i64 8, ptr %9) #25
  call void @llvm.lifetime.end.p0(i64 8, ptr %8) #25
  call void @llvm.lifetime.end.p0(i64 8, ptr %7) #25
  call void @llvm.lifetime.end.p0(i64 8, ptr %6) #25
  call void @llvm.lifetime.end.p0(i64 8, ptr %5) #25
  call void @llvm.lifetime.end.p0(i64 8, ptr %4) #25
  %49 = load i32, ptr %2, align 4
  ret i32 %49
}

; Function Attrs: nounwind sspstrong uwtable
define internal ptr @check_econv(i64 noundef %0) #0 {
  %2 = alloca i64, align 8
  %3 = alloca ptr, align 8
  store i64 %0, ptr %2, align 8, !tbaa !12
  call void @llvm.lifetime.start.p0(i64 8, ptr %3) #25
  %4 = load i64, ptr %2, align 8, !tbaa !12
  %5 = call ptr @rb_check_typeddata(i64 noundef %4, ptr noundef @econv_data_type)
  store ptr %5, ptr %3, align 8, !tbaa !30
  %6 = load ptr, ptr %3, align 8, !tbaa !30
  %7 = icmp ne ptr %6, null
  br i1 %7, label %10, label %8

8:                                                ; preds = %1
  %9 = load i64, ptr @rb_eTypeError, align 8, !tbaa !12
  call void (i64, ptr, ...) @rb_raise(i64 noundef %9, ptr noundef @.str.119) #26
  unreachable

10:                                               ; preds = %1
  %11 = load ptr, ptr %3, align 8, !tbaa !30
  call void @llvm.lifetime.end.p0(i64 8, ptr %3) #25
  ret ptr %11
}

; Function Attrs: nounwind sspstrong uwtable
define internal i64 @econv_get_replacement(i64 noundef %0) #0 {
  %2 = alloca i64, align 8
  %3 = alloca ptr, align 8
  %4 = alloca i32, align 4
  %5 = alloca ptr, align 8
  store i64 %0, ptr %2, align 8, !tbaa !12
  call void @llvm.lifetime.start.p0(i64 8, ptr %3) #25
  %6 = load i64, ptr %2, align 8, !tbaa !12
  %7 = call ptr @check_econv(i64 noundef %6)
  store ptr %7, ptr %3, align 8, !tbaa !30
  call void @llvm.lifetime.start.p0(i64 4, ptr %4) #25
  call void @llvm.lifetime.start.p0(i64 8, ptr %5) #25
  %8 = load ptr, ptr %3, align 8, !tbaa !30
  %9 = call i32 @make_replacement(ptr noundef %8)
  store i32 %9, ptr %4, align 4, !tbaa !29
  %10 = load i32, ptr %4, align 4, !tbaa !29
  %11 = icmp eq i32 %10, -1
  br i1 %11, label %12, label %14

12:                                               ; preds = %1
  %13 = load i64, ptr @rb_eUndefinedConversionError, align 8, !tbaa !12
  call void (i64, ptr, ...) @rb_raise(i64 noundef %13, ptr noundef @.str.129) #26
  unreachable

14:                                               ; preds = %1
  %15 = load ptr, ptr %3, align 8, !tbaa !30
  %16 = getelementptr inbounds nuw %struct.rb_econv_t, ptr %15, i32 0, i32 6
  %17 = load ptr, ptr %16, align 8, !tbaa !77
  %18 = call ptr @rb_enc_find(ptr noundef %17)
  store ptr %18, ptr %5, align 8, !tbaa !106
  br i1 false, label %19, label %24

19:                                               ; preds = %14
  %20 = load ptr, ptr %3, align 8, !tbaa !30
  %21 = getelementptr inbounds nuw %struct.rb_econv_t, ptr %20, i32 0, i32 5
  %22 = load i64, ptr %21, align 8, !tbaa !76
  %23 = call i1 @llvm.is.constant.i64(i64 %22)
  br label %24

24:                                               ; preds = %19, %14
  %25 = phi i1 [ false, %14 ], [ %23, %19 ]
  %26 = select i1 %25, ptr @rb_enc_str_new_static, ptr @rb_enc_str_new
  %27 = load ptr, ptr %3, align 8, !tbaa !30
  %28 = getelementptr inbounds nuw %struct.rb_econv_t, ptr %27, i32 0, i32 4
  %29 = load ptr, ptr %28, align 8, !tbaa !55
  %30 = load ptr, ptr %3, align 8, !tbaa !30
  %31 = getelementptr inbounds nuw %struct.rb_econv_t, ptr %30, i32 0, i32 5
  %32 = load i64, ptr %31, align 8, !tbaa !76
  %33 = load ptr, ptr %5, align 8, !tbaa !106
  %34 = call i64 %26(ptr noundef %29, i64 noundef %32, ptr noundef %33)
  call void @llvm.lifetime.end.p0(i64 8, ptr %5) #25
  call void @llvm.lifetime.end.p0(i64 4, ptr %4) #25
  call void @llvm.lifetime.end.p0(i64 8, ptr %3) #25
  ret i64 %34
}