; Function Attrs: nounwind sspstrong uwtable
define internal i64 @econv_get_replacement(i64 noundef %0) #0 {
  %2 = tail call ptr @rb_check_typeddata(i64 noundef %0, ptr noundef nonnull @econv_data_type) #22
  %.not.i = icmp eq ptr %2, null
  br i1 %.not.i, label %3, label %check_econv.exit

3:                                                ; preds = %1
  %4 = load i64, ptr @rb_eTypeError, align 8, !tbaa !22
  tail call void (i64, ptr, ...) @rb_raise(i64 noundef %4, ptr noundef nonnull @.str.119) #23
  unreachable

check_econv.exit:                                 ; preds = %1
  %5 = getelementptr inbounds nuw i8, ptr %2, i64 24
  %6 = load ptr, ptr %5, align 8, !tbaa !74
  %.not.i6 = icmp eq ptr %6, null
  br i1 %.not.i6, label %7, label %check_econv.exit.make_replacement.exit_crit_edge

check_econv.exit.make_replacement.exit_crit_edge: ; preds = %check_econv.exit
  %.phi.trans.insert = getelementptr inbounds nuw i8, ptr %2, i64 40
  %.pre = load ptr, ptr %.phi.trans.insert, align 8, !tbaa !97
  br label %make_replacement.exit

7:                                                ; preds = %check_econv.exit
  %8 = getelementptr inbounds nuw i8, ptr %2, i64 104
  %9 = load ptr, ptr %8, align 8, !tbaa !49
  %10 = icmp eq ptr %9, null
  br i1 %10, label %rb_econv_encoding_to_insert_output.exit.i, label %11

11:                                               ; preds = %7
  %12 = load ptr, ptr %9, align 8, !tbaa !65
  %13 = getelementptr inbounds nuw i8, ptr %12, i64 68
  %14 = load i32, ptr %13, align 4, !tbaa !67
  %15 = icmp eq i32 %14, 2
  br i1 %15, label %16, label %18

16:                                               ; preds = %11
  %17 = load ptr, ptr %12, align 8, !tbaa !12
  br label %rb_econv_encoding_to_insert_output.exit.i

18:                                               ; preds = %11
  %19 = getelementptr inbounds nuw i8, ptr %12, i64 8
  %20 = load ptr, ptr %19, align 8, !tbaa !18
  br label %rb_econv_encoding_to_insert_output.exit.i

rb_econv_encoding_to_insert_output.exit.i:        ; preds = %18, %16, %7
  %.0.i.i = phi ptr [ %17, %16 ], [ %20, %18 ], [ @.str.2, %7 ]
  %21 = load i8, ptr %.0.i.i, align 1, !tbaa !27
  %.not13.i = icmp eq i8 %21, 0
  br i1 %.not13.i, label %29, label %22

22:                                               ; preds = %rb_econv_encoding_to_insert_output.exit.i
  %23 = load ptr, ptr %9, align 8, !tbaa !65
  %24 = getelementptr inbounds nuw i8, ptr %23, i64 8
  %25 = load ptr, ptr %24, align 8, !tbaa !18
  %26 = tail call ptr @rb_enc_find(ptr noundef %25) #22
  %27 = tail call i32 @rb_st_locale_insensitive_strcasecmp(ptr noundef nonnull readonly %.0.i.i, ptr noundef nonnull @.str.90) #25
  %28 = icmp eq i32 %27, 0
  %..i.i = select i1 %28, i64 3, i64 1
  %.str.90..str.82.i.i = select i1 %28, ptr @.str.90, ptr @.str.82
  %.str.91..str.89.i.i = select i1 %28, ptr @.str.91, ptr @.str.89
  br label %29

29:                                               ; preds = %22, %rb_econv_encoding_to_insert_output.exit.i
  %.014.i = phi ptr [ %.str.90..str.82.i.i, %22 ], [ @.str.2, %rb_econv_encoding_to_insert_output.exit.i ]
  %.0.i = phi i64 [ %..i.i, %22 ], [ 1, %rb_econv_encoding_to_insert_output.exit.i ]
  %.012.i = phi ptr [ %.str.91..str.89.i.i, %22 ], [ @.str.89, %rb_econv_encoding_to_insert_output.exit.i ]
  store ptr %.012.i, ptr %5, align 8, !tbaa !74
  %30 = getelementptr inbounds nuw i8, ptr %2, i64 32
  store i64 %.0.i, ptr %30, align 8, !tbaa !96
  %31 = getelementptr inbounds nuw i8, ptr %2, i64 40
  store ptr %.014.i, ptr %31, align 8, !tbaa !97
  %32 = getelementptr inbounds nuw i8, ptr %2, i64 88
  store i32 0, ptr %32, align 8, !tbaa !40
  br label %make_replacement.exit

make_replacement.exit:                            ; preds = %check_econv.exit.make_replacement.exit_crit_edge, %29
  %33 = phi ptr [ %.pre, %check_econv.exit.make_replacement.exit_crit_edge ], [ %.014.i, %29 ]
  %34 = tail call ptr @rb_enc_find(ptr noundef %33) #22
  %35 = load ptr, ptr %5, align 8, !tbaa !74
  %36 = getelementptr inbounds nuw i8, ptr %2, i64 32
  %37 = load i64, ptr %36, align 8, !tbaa !96
  %38 = tail call i64 @rb_enc_str_new(ptr noundef %35, i64 noundef %37, ptr noundef %34) #22
  ret i64 %38
}